target datalayout = "e-m:e-p270:32:32-p271:32:32-p272:64:64-i64:64-i128:128-f80:128-n8:16:32:64-S128"
target triple = "x86_64-pc-linux-gnu"

%struct.Vec_Int_t_ = type { i32, i32, ptr }
%struct.Vec_Wec_t_ = type { i32, i32, ptr }
%struct.Vec_Bit_t_ = type { i32, i32, ptr }

; Function Attrs: inlinehint nounwind uwtable
define internal void @Vec_IntGrow(ptr noundef %0, i32 noundef %1) #3 {
  %3 = alloca ptr, align 8
  %4 = alloca i32, align 4
  store ptr %0, ptr %3, align 8, !tbaa !10
  store i32 %1, ptr %4, align 4, !tbaa !12
  %5 = load ptr, ptr %3, align 8, !tbaa !10
  %6 = getelementptr inbounds nuw %struct.Vec_Int_t_, ptr %5, i32 0, i32 0
  %7 = load i32, ptr %6, align 8, !tbaa !35
  %8 = load i32, ptr %4, align 4, !tbaa !12
  %9 = icmp sge i32 %7, %8
  br i1 %9, label %10, label %11

10:                                               ; preds = %2
  br label %36

11:                                               ; preds = %2
  %12 = load ptr, ptr %3, align 8, !tbaa !10
  %13 = getelementptr inbounds nuw %struct.Vec_Int_t_, ptr %12, i32 0, i32 2
  %14 = load ptr, ptr %13, align 8, !tbaa !36
  %15 = icmp ne ptr %14, null
  br i1 %15, label %16, label %24

16:                                               ; preds = %11
  %17 = load ptr, ptr %3, align 8, !tbaa !10
  %18 = getelementptr inbounds nuw %struct.Vec_Int_t_, ptr %17, i32 0, i32 2
  %19 = load ptr, ptr %18, align 8, !tbaa !36
  %20 = load i32, ptr %4, align 4, !tbaa !12
  %21 = sext i32 %20 to i64
  %22 = mul i64 4, %21
  %23 = call ptr @realloc(ptr noundef %19, i64 noundef %22) #17
  br label %29

24:                                               ; preds = %11
  %25 = load i32, ptr %4, align 4, !tbaa !12
  %26 = sext i32 %25 to i64
  %27 = mul i64 4, %26
  %28 = call noalias ptr @malloc(i64 noundef %27) #14
  br label %29

29:                                               ; preds = %24, %16
  %30 = phi ptr [ %23, %16 ], [ %28, %24 ]
  %31 = load ptr, ptr %3, align 8, !tbaa !10
  %32 = getelementptr inbounds nuw %struct.Vec_Int_t_, ptr %31, i32 0, i32 2
  store ptr %30, ptr %32, align 8, !tbaa !36
  %33 = load i32, ptr %4, align 4, !tbaa !12
  %34 = load ptr, ptr %3, align 8, !tbaa !10
  %35 = getelementptr inbounds nuw %struct.Vec_Int_t_, ptr %34, i32 0, i32 0
  store i32 %33, ptr %35, align 8, !tbaa !35
  br label %36

36:                                               ; preds = %29, %10
  ret void
}

; Function Attrs: inlinehint nounwind uwtable
define internal void @Vec_IntPush(ptr noundef %0, i32 noundef %1) #3 {
  %3 = alloca ptr, align 8
  %4 = alloca i32, align 4
  store ptr %0, ptr %3, align 8, !tbaa !10
  store i32 %1, ptr %4, align 4, !tbaa !12
  %5 = load ptr, ptr %3, align 8, !tbaa !10
  %6 = getelementptr inbounds nuw %struct.Vec_Int_t_, ptr %5, i32 0, i32 1
  %7 = load i32, ptr %6, align 4, !tbaa !34
  %8 = load ptr, ptr %3, align 8, !tbaa !10
  %9 = getelementptr inbounds nuw %struct.Vec_Int_t_, ptr %8, i32 0, i32 0
  %10 = load i32, ptr %9, align 8, !tbaa !35
  %11 = icmp eq i32 %7, %10
  br i1 %11, label %12, label %26

12:                                               ; preds = %2
  %13 = load ptr, ptr %3, align 8, !tbaa !10
  %14 = getelementptr inbounds nuw %struct.Vec_Int_t_, ptr %13, i32 0, i32 0
  %15 = load i32, ptr %14, align 8, !tbaa !35
  %16 = icmp slt i32 %15, 16
  br i1 %16, label %17, label %19

17:                                               ; preds = %12
  %18 = load ptr, ptr %3, align 8, !tbaa !10
  call void @Vec_IntGrow(ptr noundef %18, i32 noundef 16)
  br label %25

19:                                               ; preds = %12
  %20 = load ptr, ptr %3, align 8, !tbaa !10
  %21 = load ptr, ptr %3, align 8, !tbaa !10
  %22 = getelementptr inbounds nuw %struct.Vec_Int_t_, ptr %21, i32 0, i32 0
  %23 = load i32, ptr %22, align 8, !tbaa !35
  %24 = mul nsw i32 2, %23
  call void @Vec_IntGrow(ptr noundef %20, i32 noundef %24)
  br label %25

25:                                               ; preds = %19, %17
  br label %26

26:                                               ; preds = %25, %2
  %27 = load i32, ptr %4, align 4, !tbaa !12
  %28 = load ptr, ptr %3, align 8, !tbaa !10
  %29 = getelementptr inbounds nuw %struct.Vec_Int_t_, ptr %28, i32 0, i32 2
  %30 = load ptr, ptr %29, align 8, !tbaa !36
  %31 = load ptr, ptr %3, align 8, !tbaa !10
  %32 = getelementptr inbounds nuw %struct.Vec_Int_t_, ptr %31, i32 0, i32 1
  %33 = load i32, ptr %32, align 4, !tbaa !34
  %34 = add nsw i32 %33, 1
  store i32 %34, ptr %32, align 4, !tbaa !34
  %35 = sext i32 %33 to i64
  %36 = getelementptr inbounds i32, ptr %30, i64 %35
  store i32 %27, ptr %36, align 4, !tbaa !12
  ret void
}

; Function Attrs: inlinehint nounwind uwtable
define internal i32 @Vec_BitEntry(ptr noundef %0, i32 noundef %1) #3 {
  %3 = alloca ptr, align 8
  %4 = alloca i32, align 4
  store ptr %0, ptr %3, align 8, !tbaa !49
  store i32 %1, ptr %4, align 4, !tbaa !12
  %5 = load ptr, ptr %3, align 8, !tbaa !49
  %6 = getelementptr inbounds nuw %struct.Vec_Bit_t_, ptr %5, i32 0, i32 2
  %7 = load ptr, ptr %6, align 8, !tbaa !56
  %8 = load i32, ptr %4, align 4, !tbaa !12
  %9 = ashr i32 %8, 5
  %10 = sext i32 %9 to i64
  %11 = getelementptr inbounds i32, ptr %7, i64 %10
  %12 = load i32, ptr %11, align 4, !tbaa !12
  %13 = load i32, ptr %4, align 4, !tbaa !12
  %14 = and i32 %13, 31
  %15 = ashr i32 %12, %14
  %16 = and i32 %15, 1
  ret i32 %16
}

; Function Attrs: inlinehint nounwind uwtable
define internal i32 @Vec_IntSize(ptr noundef %0) #3 {
  %2 = alloca ptr, align 8
  store ptr %0, ptr %2, align 8, !tbaa !10
  %3 = load ptr, ptr %2, align 8, !tbaa !10
  %4 = getelementptr inbounds nuw %struct.Vec_Int_t_, ptr %3, i32 0, i32 1
  %5 = load i32, ptr %4, align 4, !tbaa !34
  ret i32 %5
}

; Function Attrs: inlinehint nounwind uwtable
define internal ptr @Vec_WecEntry(ptr noundef %0, i32 noundef %1) #3 {
  %3 = alloca ptr, align 8
  %4 = alloca i32, align 4
  store ptr %0, ptr %3, align 8, !tbaa !43
  store i32 %1, ptr %4, align 4, !tbaa !12
  %5 = load ptr, ptr %3, align 8, !tbaa !43
  %6 = getelementptr inbounds nuw %struct.Vec_Wec_t_, ptr %5, i32 0, i32 2
  %7 = load ptr, ptr %6, align 8, !tbaa !58
  %8 = load i32, ptr %4, align 4, !tbaa !12
  %9 = sext i32 %8 to i64
  %10 = getelementptr inbounds %struct.Vec_Int_t_, ptr %7, i64 %9
  ret ptr %10
}

; Function Attrs: inlinehint nounwind uwtable
define internal i32 @Vec_IntEntry(ptr noundef %0, i32 noundef %1) #3 {
  %3 = alloca ptr, align 8
  %4 = alloca i32, align 4
  store ptr %0, ptr %3, align 8, !tbaa !10
  store i32 %1, ptr %4, align 4, !tbaa !12
  %5 = load ptr, ptr %3, align 8, !tbaa !10
  %6 = getelementptr inbounds nuw %struct.Vec_Int_t_, ptr %5, i32 0, i32 2
  %7 = load ptr, ptr %6, align 8, !tbaa !36
  %8 = load i32, ptr %4, align 4, !tbaa !12
  %9 = sext i32 %8 to i64
  %10 = getelementptr inbounds i32, ptr %7, i64 %9
  %11 = load i32, ptr %10, align 4, !tbaa !12
  ret i32 %11
}

; Function Attrs: nounwind uwtable
define void @Gia_PolyCollectRoots_rec(ptr noundef %0, ptr noundef %1, ptr noundef %2, i32 noundef %3, ptr noundef %4) #0 {
  %6 = alloca ptr, align 8
  %7 = alloca ptr, align 8
  %8 = alloca ptr, align 8
  %9 = alloca i32, align 4
  %10 = alloca ptr, align 8
  %11 = alloca i32, align 4
  %12 = alloca i32, align 4
  %13 = alloca i32, align 4
  %14 = alloca i32, align 4
  %15 = alloca i32, align 4
  %16 = alloca ptr, align 8
  %17 = alloca i32, align 4
  store ptr %0, ptr %6, align 8, !tbaa !10
  store ptr %1, ptr %7, align 8, !tbaa !43
  store ptr %2, ptr %8, align 8, !tbaa !49
  store i32 %3, ptr %9, align 4, !tbaa !12
  store ptr %4, ptr %10, align 8, !tbaa !10
  call void @llvm.lifetime.start.p0(i64 4, ptr %11) #13
  store i32 0, ptr %11, align 4, !tbaa !12
  br label %18

18:                                               ; preds = %81, %5
  %19 = load i32, ptr %11, align 4, !tbaa !12
  %20 = icmp slt i32 %19, 3
  br i1 %20, label %21, label %84

21:                                               ; preds = %18
  call void @llvm.lifetime.start.p0(i64 4, ptr %12) #13
  call void @llvm.lifetime.start.p0(i64 4, ptr %13) #13
  call void @llvm.lifetime.start.p0(i64 4, ptr %14) #13
  call void @llvm.lifetime.start.p0(i64 4, ptr %15) #13
  %22 = load ptr, ptr %6, align 8, !tbaa !10
  %23 = load i32, ptr %9, align 4, !tbaa !12
  %24 = mul nsw i32 6, %23
  %25 = load i32, ptr %11, align 4, !tbaa !12
  %26 = add nsw i32 %24, %25
  %27 = call i32 @Vec_IntEntry(ptr noundef %22, i32 noundef %26)
  store i32 %27, ptr %15, align 4, !tbaa !12
  call void @llvm.lifetime.start.p0(i64 8, ptr %16) #13
  %28 = load ptr, ptr %7, align 8, !tbaa !43
  %29 = load i32, ptr %15, align 4, !tbaa !12
  %30 = call ptr @Vec_WecEntry(ptr noundef %28, i32 noundef %29)
  store ptr %30, ptr %16, align 8, !tbaa !10
  %31 = load i32, ptr %15, align 4, !tbaa !12
  %32 = icmp eq i32 %31, 0
  br i1 %32, label %33, label %34

33:                                               ; preds = %21
  store i32 4, ptr %17, align 4
  br label %78

34:                                               ; preds = %21
  store i32 0, ptr %12, align 4, !tbaa !12
  br label %35

35:                                               ; preds = %74, %34
  %36 = load i32, ptr %12, align 4, !tbaa !12
  %37 = add nsw i32 %36, 1
  %38 = load ptr, ptr %16, align 8, !tbaa !10
  %39 = call i32 @Vec_IntSize(ptr noundef %38)
  %40 = icmp slt i32 %37, %39
  br i1 %40, label %41, label %50

41:                                               ; preds = %35
  %42 = load ptr, ptr %16, align 8, !tbaa !10
  %43 = load i32, ptr %12, align 4, !tbaa !12
  %44 = call i32 @Vec_IntEntry(ptr noundef %42, i32 noundef %43)
  store i32 %44, ptr %13, align 4, !tbaa !12
  br i1 true, label %45, label %50

45:                                               ; preds = %41
  %46 = load ptr, ptr %16, align 8, !tbaa !10
  %47 = load i32, ptr %12, align 4, !tbaa !12
  %48 = add nsw i32 %47, 1
  %49 = call i32 @Vec_IntEntry(ptr noundef %46, i32 noundef %48)
  store i32 %49, ptr %14, align 4, !tbaa !12
  br label %50

50:                                               ; preds = %45, %41, %35
  %51 = phi i1 [ false, %41 ], [ false, %35 ], [ true, %45 ]
  br i1 %51, label %52, label %77

52:                                               ; preds = %50
  %53 = load ptr, ptr %6, align 8, !tbaa !10
  %54 = load i32, ptr %13, align 4, !tbaa !12
  %55 = mul nsw i32 6, %54
  %56 = add nsw i32 %55, 4
  %57 = call i32 @Vec_IntEntry(ptr noundef %53, i32 noundef %56)
  %58 = load i32, ptr %15, align 4, !tbaa !12
  %59 = icmp eq i32 %57, %58
  br i1 %59, label %60, label %73

60:                                               ; preds = %52
  %61 = load ptr, ptr %8, align 8, !tbaa !49
  %62 = load i32, ptr %14, align 4, !tbaa !12
  %63 = call i32 @Vec_BitEntry(ptr noundef %61, i32 noundef %62)
  %64 = icmp ne i32 %63, 0
  br i1 %64, label %73, label %65

65:                                               ; preds = %60
  %66 = load ptr, ptr %10, align 8, !tbaa !10
  %67 = load i32, ptr %14, align 4, !tbaa !12
  call void @Vec_IntPush(ptr noundef %66, i32 noundef %67)
  %68 = load ptr, ptr %6, align 8, !tbaa !10
  %69 = load ptr, ptr %7, align 8, !tbaa !43
  %70 = load ptr, ptr %8, align 8, !tbaa !49
  %71 = load i32, ptr %13, align 4, !tbaa !12
  %72 = load ptr, ptr %10, align 8, !tbaa !10
  call void @Gia_PolyCollectRoots_rec(ptr noundef %68, ptr noundef %69, ptr noundef %70, i32 noundef %71, ptr noundef %72)
  br label %73

73:                                               ; preds = %65, %60, %52
  br label %74

74:                                               ; preds = %73
  %75 = load i32, ptr %12, align 4, !tbaa !12
  %76 = add nsw i32 %75, 2
  store i32 %76, ptr %12, align 4, !tbaa !12
  br label %35, !llvm.loop !64

77:                                               ; preds = %50
  store i32 0, ptr %17, align 4
  br label %78

78:                                               ; preds = %77, %33
  call void @llvm.lifetime.end.p0(i64 8, ptr %16) #13
  call void @llvm.lifetime.end.p0(i64 4, ptr %15) #13
  call void @llvm.lifetime.end.p0(i64 4, ptr %14) #13
  call void @llvm.lifetime.end.p0(i64 4, ptr %13) #13
  call void @llvm.lifetime.end.p0(i64 4, ptr %12) #13
  %79 = load i32, ptr %17, align 4
  switch i32 %79, label %85 [
    i32 0, label %80
    i32 4, label %81
  ]

80:                                               ; preds = %78
  br label %81

81:                                               ; preds = %80, %78
  %82 = load i32, ptr %11, align 4, !tbaa !12
  %83 = add nsw i32 %82, 1
  store i32 %83, ptr %11, align 4, !tbaa !12
  br label %18, !llvm.loop !65

84:                                               ; preds = %18
  call void @llvm.lifetime.end.p0(i64 4, ptr %11) #13
  ret void

85:                                               ; preds = %78
  unreachable
}