; Function Attrs: nounwind uwtable
define void @Gia_PolyCollectRoots_rec(ptr noundef readonly captures(none) %0, ptr noundef readonly captures(none) %1, ptr noundef readonly captures(none) %2, i32 noundef %3, ptr noundef captures(none) %4) local_unnamed_addr #0 {
  %6 = mul nsw i32 %3, 6
  %7 = getelementptr i8, ptr %0, i64 8
  %8 = getelementptr i8, ptr %1, i64 8
  %9 = getelementptr i8, ptr %2, i64 8
  %10 = getelementptr inbounds nuw i8, ptr %4, i64 4
  %.phi.trans.insert.i = getelementptr inbounds nuw i8, ptr %4, i64 8
  %11 = sext i32 %6 to i64
  br label %12

12:                                               ; preds = %5, %.critedge
  %indvars.iv39 = phi i64 [ 0, %5 ], [ %indvars.iv.next40, %.critedge ]
  %.val32 = load ptr, ptr %7, align 8, !tbaa !31
  %13 = getelementptr i32, ptr %.val32, i64 %indvars.iv39
  %14 = getelementptr i32, ptr %13, i64 %11
  %15 = load i32, ptr %14, align 4, !tbaa !32
  %.val33 = load ptr, ptr %8, align 8, !tbaa !43
  %16 = sext i32 %15 to i64
  %17 = getelementptr inbounds %struct.Vec_Int_t_, ptr %.val33, i64 %16
  %18 = icmp eq i32 %15, 0
  br i1 %18, label %.critedge, label %.preheader

.preheader:                                       ; preds = %12
  %19 = getelementptr i8, ptr %17, i64 4
  %.val35 = load i32, ptr %19, align 4, !tbaa !29
  %20 = icmp sgt i32 %.val35, 1
  br i1 %20, label %.lr.ph, label %.critedge

.lr.ph:                                           ; preds = %.preheader
  %21 = getelementptr i8, ptr %17, i64 8
  br label %22

22:                                               ; preds = %.lr.ph, %71
  %.val42 = phi i32 [ %.val35, %.lr.ph ], [ %.val, %71 ]
  %indvars.iv = phi i64 [ 0, %.lr.ph ], [ %indvars.iv.next, %71 ]
  %23 = or disjoint i64 %indvars.iv, 1
  %.val31 = load ptr, ptr %21, align 8, !tbaa !31
  %24 = getelementptr inbounds nuw i32, ptr %.val31, i64 %indvars.iv
  %25 = load i32, ptr %24, align 4, !tbaa !32
  %26 = getelementptr inbounds nuw i32, ptr %.val31, i64 %23
  %27 = load i32, ptr %26, align 4, !tbaa !32
  %28 = mul nsw i32 %25, 6
  %.val29 = load ptr, ptr %7, align 8, !tbaa !31
  %29 = sext i32 %28 to i64
  %30 = getelementptr i32, ptr %.val29, i64 %29
  %31 = getelementptr i8, ptr %30, i64 16
  %32 = load i32, ptr %31, align 4, !tbaa !32
  %33 = icmp eq i32 %32, %15
  br i1 %33, label %34, label %71

34:                                               ; preds = %22
  %.val34 = load ptr, ptr %9, align 8, !tbaa !49
  %35 = ashr i32 %27, 5
  %36 = sext i32 %35 to i64
  %37 = getelementptr inbounds i32, ptr %.val34, i64 %36
  %38 = load i32, ptr %37, align 4, !tbaa !32
  %39 = and i32 %27, 31
  %40 = shl nuw i32 1, %39
  %41 = and i32 %38, %40
  %.not = icmp eq i32 %41, 0
  br i1 %.not, label %42, label %71

42:                                               ; preds = %34
  %43 = load i32, ptr %10, align 4, !tbaa !29
  %44 = load i32, ptr %4, align 8, !tbaa !30
  %45 = icmp eq i32 %43, %44
  br i1 %45, label %46, label %.Vec_IntGrow.exit10_crit_edge.i

.Vec_IntGrow.exit10_crit_edge.i:                  ; preds = %42
  %.pre.i = load ptr, ptr %.phi.trans.insert.i, align 8, !tbaa !31
  br label %Vec_IntPush.exit

46:                                               ; preds = %42
  %47 = icmp slt i32 %43, 16
  br i1 %47, label %48, label %55

48:                                               ; preds = %46
  %49 = load ptr, ptr %.phi.trans.insert.i, align 8, !tbaa !31
  %.not9.i.i = icmp eq ptr %49, null
  br i1 %.not9.i.i, label %52, label %50

50:                                               ; preds = %48
  %51 = tail call dereferenceable_or_null(64) ptr @realloc(ptr noundef nonnull %49, i64 noundef 64) #20
  br label %Vec_IntGrow.exit.i

52:                                               ; preds = %48
  %53 = tail call noalias dereferenceable_or_null(64) ptr @malloc(i64 noundef 64) #21
  br label %Vec_IntGrow.exit.i

Vec_IntGrow.exit.i:                               ; preds = %52, %50
  %54 = phi ptr [ %51, %50 ], [ %53, %52 ]
  store ptr %54, ptr %.phi.trans.insert.i, align 8, !tbaa !31
  store i32 16, ptr %4, align 8, !tbaa !30
  br label %Vec_IntPush.exit

55:                                               ; preds = %46
  %56 = shl nuw nsw i32 %43, 1
  %57 = load ptr, ptr %.phi.trans.insert.i, align 8, !tbaa !31
  %.not9.i9.i = icmp eq ptr %57, null
  %58 = zext nneg i32 %56 to i64
  %59 = shl nuw nsw i64 %58, 2
  br i1 %.not9.i9.i, label %62, label %60

60:                                               ; preds = %55
  %61 = tail call ptr @realloc(ptr noundef nonnull %57, i64 noundef %59) #20
  br label %64

62:                                               ; preds = %55
  %63 = tail call noalias ptr @malloc(i64 noundef %59) #21
  br label %64

64:                                               ; preds = %62, %60
  %65 = phi ptr [ %61, %60 ], [ %63, %62 ]
  store ptr %65, ptr %.phi.trans.insert.i, align 8, !tbaa !31
  store i32 %56, ptr %4, align 8, !tbaa !30
  br label %Vec_IntPush.exit

Vec_IntPush.exit:                                 ; preds = %.Vec_IntGrow.exit10_crit_edge.i, %Vec_IntGrow.exit.i, %64
  %66 = phi ptr [ %.pre.i, %.Vec_IntGrow.exit10_crit_edge.i ], [ %65, %64 ], [ %54, %Vec_IntGrow.exit.i ]
  %67 = load i32, ptr %10, align 4, !tbaa !29
  %68 = add nsw i32 %67, 1
  store i32 %68, ptr %10, align 4, !tbaa !29
  %69 = sext i32 %67 to i64
  %70 = getelementptr inbounds i32, ptr %66, i64 %69
  store i32 %27, ptr %70, align 4, !tbaa !32
  tail call void @Gia_PolyCollectRoots_rec(ptr noundef nonnull %0, ptr noundef %1, ptr noundef nonnull %2, i32 noundef %25, ptr noundef nonnull %4)
  %.val.pre = load i32, ptr %19, align 4, !tbaa !29
  br label %71

71:                                               ; preds = %22, %34, %Vec_IntPush.exit
  %.val = phi i32 [ %.val42, %22 ], [ %.val42, %34 ], [ %.val.pre, %Vec_IntPush.exit ]
  %indvars.iv.next = add nuw nsw i64 %indvars.iv, 2
  %72 = trunc i64 %indvars.iv.next to i32
  %73 = or disjoint i32 %72, 1
  %74 = icmp slt i32 %73, %.val
  br i1 %74, label %22, label %.critedge, !llvm.loop !64

.critedge:                                        ; preds = %71, %.preheader, %12
  %indvars.iv.next40 = add nuw nsw i64 %indvars.iv39, 1
  %exitcond.not = icmp eq i64 %indvars.iv.next40, 3
  br i1 %exitcond.not, label %75, label %12, !llvm.loop !65

75:                                               ; preds = %.critedge
  ret void
}